; Function Attrs: mustprogress nofree norecurse nounwind willreturn memory(argmem: readwrite) uwtable
define dso_local void @_ZN4absl18container_internal24RecordStorageChangedSlowEPNS0_14HashtablezInfoEmm(ptr noundef writeonly captures(none) %0, i64 noundef %1, i64 noundef %2) local_unnamed_addr #6 {
  %4 = getelementptr inbounds nuw i8, ptr %0, i64 40
  store atomic i64 %1, ptr %4 monotonic, align 8
  %5 = getelementptr inbounds nuw i8, ptr %0, i64 32
  store atomic i64 %2, ptr %5 monotonic, align 8
  %6 = icmp eq i64 %1, 0
  br i1 %6, label %7, label %10

7:                                                ; preds = %3
  %8 = getelementptr inbounds nuw i8, ptr %0, i64 72
  store atomic i64 0, ptr %8 monotonic, align 8
  %9 = getelementptr inbounds nuw i8, ptr %0, i64 48
  store atomic i64 0, ptr %9 monotonic, align 8
  br label %10

10:                                               ; preds = %7, %3
  ret void
}